; Function Attrs: uwtable
define void @_ZN3nix10SQLiteStmt6createEP7sqlite3RKNSt7__cxx1112basic_stringIcSt11char_traitsIcESaIcEEE(ptr noundef nonnull align 8 dereferenceable(48) %0, ptr noundef %1, ptr noundef nonnull align 8 dereferenceable(32) %2) local_unnamed_addr #8 align 2 personality ptr @__gxx_personality_v0 {
  %4 = alloca %"class.std::__cxx11::basic_string", align 8
  %5 = alloca %"class.std::allocator.4", align 1
  %6 = load atomic i8, ptr @_ZN3nix14_isInterruptedE seq_cst, align 1
  %7 = and i8 %6, 1
  %.not.i = icmp eq i8 %7, 0
  br i1 %.not.i, label %8, label %18

8:                                                ; preds = %3
  br i1 icmp ne (ptr @_ZTHN3nix14interruptCheckE, ptr null), label %9, label %_ZTWN3nix14interruptCheckE.exit.i

9:                                                ; preds = %8
  tail call void @_ZTHN3nix14interruptCheckE()
  br label %_ZTWN3nix14interruptCheckE.exit.i

_ZTWN3nix14interruptCheckE.exit.i:                ; preds = %9, %8
  %10 = tail call noundef align 8 ptr @llvm.threadlocal.address.p0(ptr align 8 @_ZN3nix14interruptCheckE)
  %11 = getelementptr inbounds i8, ptr %10, i64 16
  %12 = load ptr, ptr %11, align 8
  %.not.i.i.not.i = icmp eq ptr %12, null
  br i1 %.not.i.i.not.i, label %_ZN3nix14checkInterruptEv.exit, label %13

13:                                               ; preds = %_ZTWN3nix14interruptCheckE.exit.i
  br i1 icmp ne (ptr @_ZTHN3nix14interruptCheckE, ptr null), label %_ZTWN3nix14interruptCheckE.exit1.i, label %_ZNKSt8functionIFbvEEclEv.exit.i

_ZTWN3nix14interruptCheckE.exit1.i:               ; preds = %13
  tail call void @_ZTHN3nix14interruptCheckE()
  %.pr.i = load ptr, ptr %11, align 8
  %.not.i.i2.i = icmp eq ptr %.pr.i, null
  br i1 %.not.i.i2.i, label %14, label %_ZNKSt8functionIFbvEEclEv.exit.i

14:                                               ; preds = %_ZTWN3nix14interruptCheckE.exit1.i
  tail call void @_ZSt25__throw_bad_function_callv() #24
  unreachable

_ZNKSt8functionIFbvEEclEv.exit.i:                 ; preds = %_ZTWN3nix14interruptCheckE.exit1.i, %13
  %15 = getelementptr inbounds i8, ptr %10, i64 24
  %16 = load ptr, ptr %15, align 8
  %17 = tail call noundef zeroext i1 %16(ptr noundef nonnull align 8 dereferenceable(16) %10)
  br i1 %17, label %18, label %_ZN3nix14checkInterruptEv.exit

18:                                               ; preds = %_ZNKSt8functionIFbvEEclEv.exit.i, %3
  tail call void @_ZN3nix12_interruptedEv()
  br label %_ZN3nix14checkInterruptEv.exit

_ZN3nix14checkInterruptEv.exit:                   ; preds = %_ZTWN3nix14interruptCheckE.exit.i, %_ZNKSt8functionIFbvEEclEv.exit.i, %18
  %19 = load ptr, ptr %2, align 8
  %20 = getelementptr inbounds i8, ptr %0, i64 8
  %21 = tail call i32 @sqlite3_prepare_v2(ptr noundef %1, ptr noundef %19, i32 noundef -1, ptr noundef nonnull %20, ptr noundef null)
  %.not = icmp eq i32 %21, 0
  br i1 %.not, label %30, label %22

22:                                               ; preds = %_ZN3nix14checkInterruptEv.exit
  call void @_ZNSaIcEC1Ev(ptr noundef nonnull align 1 dereferenceable(1) %5) #22
  invoke void @_ZNSt7__cxx1112basic_stringIcSt11char_traitsIcESaIcEEC2IS3_EEPKcRKS3_(ptr noundef nonnull align 8 dereferenceable(32) %4, ptr noundef nonnull @.str.21, ptr noundef nonnull align 1 dereferenceable(1) %5)
          to label %23 unwind label %25

23:                                               ; preds = %22
  invoke void @_ZN3nix11SQLiteError6throw_IJNSt7__cxx1112basic_stringIcSt11char_traitsIcESaIcEEEEEEvP7sqlite3RKS7_DpRKT_(ptr noundef %1, ptr noundef nonnull align 8 dereferenceable(32) %4, ptr noundef nonnull align 8 dereferenceable(32) %2) #24
          to label %24 unwind label %27

24:                                               ; preds = %23
  unreachable

25:                                               ; preds = %22
  %26 = landingpad { ptr, i32 }
          cleanup
  br label %29

27:                                               ; preds = %23
  %28 = landingpad { ptr, i32 }
          cleanup
  call void @_ZNSt7__cxx1112basic_stringIcSt11char_traitsIcESaIcEED2Ev(ptr noundef nonnull align 8 dereferenceable(32) %4) #22
  br label %29

29:                                               ; preds = %27, %25
  %.pn = phi { ptr, i32 } [ %28, %27 ], [ %26, %25 ]
  call void @_ZNSaIcED1Ev(ptr noundef nonnull align 1 dereferenceable(1) %5) #22
  resume { ptr, i32 } %.pn

30:                                               ; preds = %_ZN3nix14checkInterruptEv.exit
  store ptr %1, ptr %0, align 8
  %31 = getelementptr inbounds i8, ptr %0, i64 16
  tail call void @_ZNSt7__cxx1112basic_stringIcSt11char_traitsIcESaIcEE9_M_assignERKS4_(ptr noundef nonnull align 8 dereferenceable(32) %31, ptr noundef nonnull align 8 dereferenceable(32) %2)
  ret void
}